target datalayout = "e-m:e-p270:32:32-p271:32:32-p272:64:64-i64:64-i128:128-f80:128-n8:16:32:64-S128"
target triple = "x86_64-pc-linux-gnu"

%"class.sat::literal" = type { i32 }
%"class.pb::card" = type { %"class.pb::constraint", [0 x %"class.sat::literal"] }
%"class.pb::constraint" = type { ptr, i32, i8, %"class.sat::literal", %"class.sat::literal", i32, i32, i32, i64, i8, i32, i8, i32 }

; Function Attrs: mustprogress nounwind uwtable
define linkonce_odr hidden void @_ZN3sat7literal3negEv(ptr noundef nonnull align 4 dereferenceable(4) %0) #6 comdat align 2 {
  %2 = alloca ptr, align 8
  store ptr %0, ptr %2, align 8, !tbaa !42
  %3 = load ptr, ptr %2, align 8
  %4 = getelementptr inbounds nuw %"class.sat::literal", ptr %3, i32 0, i32 0
  %5 = load i32, ptr %4, align 4, !tbaa !43
  %6 = xor i32 %5, 1
  %7 = getelementptr inbounds nuw %"class.sat::literal", ptr %3, i32 0, i32 0
  store i32 %6, ptr %7, align 4, !tbaa !43
  ret void
}

; Function Attrs: mustprogress uwtable
define hidden void @_ZN2pb4card6negateEv(ptr noundef nonnull align 8 dereferenceable(64) %0) unnamed_addr #4 align 2 {
  %2 = alloca ptr, align 8
  %3 = alloca i32, align 4
  store ptr %0, ptr %2, align 8, !tbaa !3
  %4 = load ptr, ptr %2, align 8
  %5 = getelementptr inbounds nuw %"class.pb::constraint", ptr %4, i32 0, i32 3
  call void @_ZN3sat7literal3negEv(ptr noundef nonnull align 4 dereferenceable(4) %5)
  call void @llvm.lifetime.start.p0(i64 4, ptr %3) #3
  store i32 0, ptr %3, align 4, !tbaa !8
  br label %6

6:                                                ; preds = %17, %1
  %7 = load i32, ptr %3, align 4, !tbaa !8
  %8 = getelementptr inbounds nuw %"class.pb::constraint", ptr %4, i32 0, i32 7
  %9 = load i32, ptr %8, align 8, !tbaa !35
  %10 = icmp ult i32 %7, %9
  br i1 %10, label %12, label %11

11:                                               ; preds = %6
  call void @llvm.lifetime.end.p0(i64 4, ptr %3) #3
  br label %20

12:                                               ; preds = %6
  %13 = getelementptr inbounds nuw %"class.pb::card", ptr %4, i32 0, i32 1
  %14 = load i32, ptr %3, align 4, !tbaa !8
  %15 = zext i32 %14 to i64
  %16 = getelementptr inbounds nuw [0 x %"class.sat::literal"], ptr %13, i64 0, i64 %15
  call void @_ZN3sat7literal3negEv(ptr noundef nonnull align 4 dereferenceable(4) %16)
  br label %17

17:                                               ; preds = %12
  %18 = load i32, ptr %3, align 4, !tbaa !8
  %19 = add i32 %18, 1
  store i32 %19, ptr %3, align 4, !tbaa !8
  br label %6, !llvm.loop !41

20:                                               ; preds = %11
  %21 = getelementptr inbounds nuw %"class.pb::constraint", ptr %4, i32 0, i32 7
  %22 = load i32, ptr %21, align 8, !tbaa !35
  %23 = getelementptr inbounds nuw %"class.pb::constraint", ptr %4, i32 0, i32 12
  %24 = load i32, ptr %23, align 4, !tbaa !40
  %25 = sub i32 %22, %24
  %26 = add i32 %25, 1
  %27 = getelementptr inbounds nuw %"class.pb::constraint", ptr %4, i32 0, i32 12
  store i32 %26, ptr %27, align 4, !tbaa !40
  ret void
}