; Function Attrs: mustprogress nofree norecurse nosync nounwind memory(argmem: readwrite) uwtable
define hidden void @_ZN2pb4card6negateEv(ptr noundef nonnull align 8 captures(none) dereferenceable(64) %0) unnamed_addr #6 align 2 {
  %2 = getelementptr inbounds nuw i8, ptr %0, i64 16
  %3 = load i32, ptr %2, align 8, !tbaa !30
  %4 = xor i32 %3, 1
  store i32 %4, ptr %2, align 8, !tbaa !30
  %5 = getelementptr inbounds nuw i8, ptr %0, i64 32
  %6 = load i32, ptr %5, align 8, !tbaa !20
  %.not = icmp eq i32 %6, 0
  br i1 %.not, label %._crit_edge, label %.lr.ph

.lr.ph:                                           ; preds = %1
  %7 = getelementptr inbounds nuw i8, ptr %0, i64 64
  %wide.trip.count = zext i32 %6 to i64
  br label %12

._crit_edge:                                      ; preds = %12, %1
  %8 = getelementptr inbounds nuw i8, ptr %0, i64 60
  %9 = load i32, ptr %8, align 4, !tbaa !25
  %10 = add i32 %6, 1
  %11 = sub i32 %10, %9
  store i32 %11, ptr %8, align 4, !tbaa !25
  ret void

12:                                               ; preds = %.lr.ph, %12
  %indvars.iv = phi i64 [ 0, %.lr.ph ], [ %indvars.iv.next, %12 ]
  %13 = getelementptr inbounds nuw [0 x %"class.sat::literal"], ptr %7, i64 0, i64 %indvars.iv
  %14 = load i32, ptr %13, align 4, !tbaa !30
  %15 = xor i32 %14, 1
  store i32 %15, ptr %13, align 4, !tbaa !30
  %indvars.iv.next = add nuw nsw i64 %indvars.iv, 1
  %exitcond.not = icmp eq i64 %indvars.iv.next, %wide.trip.count
  br i1 %exitcond.not, label %._crit_edge, label %12, !llvm.loop !31
}